; Function Attrs: mustprogress nofree norecurse nosync nounwind willreturn memory(read, inaccessiblemem: none) uwtable
define hidden noundef zeroext i1 @_ZN16SystemDictionary24is_platform_class_loaderEP7oopDesc(ptr noundef readonly %0) local_unnamed_addr #3 align 2 {
  %2 = icmp eq ptr %0, null
  br i1 %2, label %21, label %3

3:                                                ; preds = %1
  %4 = load i8, ptr @UseCompressedClassPointers, align 1
  %5 = trunc i8 %4 to i1
  %6 = getelementptr inbounds i8, ptr %0, i64 8
  br i1 %5, label %7, label %17

7:                                                ; preds = %3
  %8 = load i32, ptr %6, align 8
  %9 = load ptr, ptr @_ZN23CompressedKlassPointers5_baseE, align 8
  %10 = load i32, ptr @_ZN23CompressedKlassPointers6_shiftE, align 4
  %11 = ptrtoint ptr %9 to i64
  %12 = zext i32 %8 to i64
  %13 = zext nneg i32 %10 to i64
  %14 = shl i64 %12, %13
  %15 = add i64 %14, %11
  %16 = inttoptr i64 %15 to ptr
  br label %_ZNK7oopDesc5klassEv.exit

17:                                               ; preds = %3
  %18 = load ptr, ptr %6, align 8
  br label %_ZNK7oopDesc5klassEv.exit

_ZNK7oopDesc5klassEv.exit:                        ; preds = %7, %17
  %.0.i = phi ptr [ %16, %7 ], [ %18, %17 ]
  %19 = load ptr, ptr getelementptr inbounds (i8, ptr @_ZN9vmClasses8_klassesE, i64 712), align 8
  %20 = icmp eq ptr %.0.i, %19
  br label %21

21:                                               ; preds = %1, %_ZNK7oopDesc5klassEv.exit
  %.0 = phi i1 [ %20, %_ZNK7oopDesc5klassEv.exit ], [ false, %1 ]
  ret i1 %.0
}